target datalayout = "e-m:e-p270:32:32-p271:32:32-p272:64:64-i64:64-i128:128-f80:128-n8:16:32:64-S128"
target triple = "x86_64-pc-linux-gnu"

%struct.H5S_t = type { %struct.H5S_extent_t, %struct.H5S_select_t }
%struct.H5S_extent_t = type { %struct.H5O_shared_t, i32, i32, i64, i32, ptr, ptr }
%struct.H5O_shared_t = type { i32, ptr, i32, %union.anon }
%union.anon = type { %struct.H5O_mesg_loc_t }
%struct.H5O_mesg_loc_t = type { i32, i64 }
%struct.H5S_select_t = type { ptr, i8, [32 x i64], i64, %union.anon.0 }
%union.anon.0 = type { ptr }
%struct.H5S_select_class_t = type { i32, ptr, ptr, ptr, ptr, ptr, ptr, ptr, ptr, ptr, ptr, ptr, ptr, ptr, ptr, ptr, ptr, ptr, ptr, ptr, ptr }

@H5S_init_g = global i8 0, align 1
@H5_libterm_g = external global i8, align 1
@.str.3 = private unnamed_addr constant [97 x i8] c"generated/home/dtcxzyw/WorkSpace/Projects/compilers/llvm-opt-benchmark/bench/hdf5/hdf5/src/H5S.c\00", align 1
@H5E_FUNC_g = external global i64, align 8
@H5E_CANTINIT_g = external global i64, align 8
@.str.4 = private unnamed_addr constant [32 x i8] c"interface initialization failed\00", align 1
@H5E_DATASPACE_g = external global i64, align 8
@H5E_CANTRESET_g = external global i64, align 8
@H5E_CANTDELETE_g = external global i64, align 8
@.str.22 = private unnamed_addr constant [23 x i8] c"can't change selection\00", align 1
@__func__.H5S_set_extent_real = private unnamed_addr constant [20 x i8] c"H5S_set_extent_real\00", align 1
@.str.63 = private unnamed_addr constant [29 x i8] c"can't stop sharing dataspace\00", align 1

; Function Attrs: nounwind uwtable
define i32 @H5S_set_extent_real(ptr noundef %0, ptr noundef %1) #0 {
  %3 = alloca ptr, align 8
  %4 = alloca ptr, align 8
  %5 = alloca i64, align 8
  %6 = alloca i32, align 4
  %7 = alloca i32, align 4
  %8 = alloca i8, align 1
  store ptr %0, ptr %3, align 8, !tbaa !13
  store ptr %1, ptr %4, align 8, !tbaa !45
  call void @llvm.lifetime.start.p0(i64 8, ptr %5) #7
  call void @llvm.lifetime.start.p0(i64 4, ptr %6) #7
  call void @llvm.lifetime.start.p0(i64 4, ptr %7) #7
  store i32 0, ptr %7, align 4, !tbaa !3
  call void @llvm.lifetime.start.p0(i64 1, ptr %8) #7
  store i8 0, ptr %8, align 1, !tbaa !7
  %9 = load i8, ptr @H5S_init_g, align 1, !tbaa !7, !range !9, !noundef !10
  %10 = trunc i8 %9 to i1
  br i1 %10, label %15, label %11

11:                                               ; preds = %2
  %12 = load i8, ptr @H5_libterm_g, align 1, !tbaa !7, !range !9, !noundef !10
  %13 = trunc i8 %12 to i1
  %14 = xor i1 %13, true
  br label %15

15:                                               ; preds = %11, %2
  %16 = phi i1 [ false, %2 ], [ %14, %11 ]
  %17 = xor i1 %16, true
  %18 = xor i1 %17, true
  %19 = zext i1 %18 to i32
  %20 = sext i32 %19 to i64
  %21 = call i64 @llvm.expect.i64(i64 %20, i64 0)
  %22 = icmp ne i64 %21, 0
  br i1 %22, label %23, label %46

23:                                               ; preds = %15
  store i8 1, ptr @H5S_init_g, align 1, !tbaa !7
  %24 = call i32 @H5S__init_package()
  %25 = icmp slt i32 %24, 0
  br i1 %25, label %26, label %45

26:                                               ; preds = %23
  store i8 0, ptr @H5S_init_g, align 1, !tbaa !7
  br label %27

27:                                               ; preds = %26
  br label %28

28:                                               ; preds = %27
  br label %29

29:                                               ; preds = %28
  %30 = load i64, ptr @H5E_FUNC_g, align 8, !tbaa !11
  %31 = load i64, ptr @H5E_CANTINIT_g, align 8, !tbaa !11
  %32 = call i32 (ptr, ptr, i32, i64, i64, ptr, ...) @H5E_printf_stack(ptr noundef @.str.3, ptr noundef @__func__.H5S_set_extent_real, i32 noundef 1840, i64 noundef %30, i64 noundef %31, ptr noundef @.str.4)
  br label %33

33:                                               ; preds = %29
  br label %34

34:                                               ; preds = %33
  store i8 1, ptr %8, align 1, !tbaa !7
  %35 = load i8, ptr %8, align 1, !tbaa !7, !range !9, !noundef !10
  %36 = trunc i8 %35 to i1
  %37 = zext i1 %36 to i8
  store i8 %37, ptr %8, align 1, !tbaa !7
  br label %38

38:                                               ; preds = %34
  br label %39

39:                                               ; preds = %38
  br label %40

40:                                               ; preds = %39
  store i32 -1, ptr %7, align 4, !tbaa !3
  br label %152

41:                                               ; No predecessors!
  br label %42

42:                                               ; preds = %41
  br label %43

43:                                               ; preds = %42
  br label %44

44:                                               ; preds = %43
  br label %45

45:                                               ; preds = %44, %23
  br label %46

46:                                               ; preds = %45, %15
  %47 = load i8, ptr @H5S_init_g, align 1, !tbaa !7, !range !9, !noundef !10
  %48 = trunc i8 %47 to i1
  br i1 %48, label %53, label %49

49:                                               ; preds = %46
  %50 = load i8, ptr @H5_libterm_g, align 1, !tbaa !7, !range !9, !noundef !10
  %51 = trunc i8 %50 to i1
  %52 = xor i1 %51, true
  br label %53

53:                                               ; preds = %49, %46
  %54 = phi i1 [ true, %46 ], [ %52, %49 ]
  %55 = xor i1 %54, true
  %56 = xor i1 %55, true
  %57 = zext i1 %56 to i32
  %58 = sext i32 %57 to i64
  %59 = call i64 @llvm.expect.i64(i64 %58, i64 1)
  %60 = icmp ne i64 %59, 0
  br i1 %60, label %61, label %153

61:                                               ; preds = %53
  store i32 0, ptr %6, align 4, !tbaa !3
  store i64 1, ptr %5, align 8, !tbaa !11
  br label %62

62:                                               ; preds = %89, %61
  %63 = load i32, ptr %6, align 4, !tbaa !3
  %64 = load ptr, ptr %3, align 8, !tbaa !13
  %65 = getelementptr inbounds nuw %struct.H5S_t, ptr %64, i32 0, i32 0
  %66 = getelementptr inbounds nuw %struct.H5S_extent_t, ptr %65, i32 0, i32 4
  %67 = load i32, ptr %66, align 8, !tbaa !24
  %68 = icmp ult i32 %63, %67
  br i1 %68, label %69, label %92

69:                                               ; preds = %62
  %70 = load ptr, ptr %4, align 8, !tbaa !45
  %71 = load i32, ptr %6, align 4, !tbaa !3
  %72 = zext i32 %71 to i64
  %73 = getelementptr inbounds nuw i64, ptr %70, i64 %72
  %74 = load i64, ptr %73, align 8, !tbaa !11
  %75 = load ptr, ptr %3, align 8, !tbaa !13
  %76 = getelementptr inbounds nuw %struct.H5S_t, ptr %75, i32 0, i32 0
  %77 = getelementptr inbounds nuw %struct.H5S_extent_t, ptr %76, i32 0, i32 5
  %78 = load ptr, ptr %77, align 8, !tbaa !26
  %79 = load i32, ptr %6, align 4, !tbaa !3
  %80 = zext i32 %79 to i64
  %81 = getelementptr inbounds nuw i64, ptr %78, i64 %80
  store i64 %74, ptr %81, align 8, !tbaa !11
  %82 = load ptr, ptr %4, align 8, !tbaa !45
  %83 = load i32, ptr %6, align 4, !tbaa !3
  %84 = zext i32 %83 to i64
  %85 = getelementptr inbounds nuw i64, ptr %82, i64 %84
  %86 = load i64, ptr %85, align 8, !tbaa !11
  %87 = load i64, ptr %5, align 8, !tbaa !11
  %88 = mul i64 %87, %86
  store i64 %88, ptr %5, align 8, !tbaa !11
  br label %89

89:                                               ; preds = %69
  %90 = load i32, ptr %6, align 4, !tbaa !3
  %91 = add i32 %90, 1
  store i32 %91, ptr %6, align 4, !tbaa !3
  br label %62, !llvm.loop !66

92:                                               ; preds = %62
  %93 = load i64, ptr %5, align 8, !tbaa !11
  %94 = load ptr, ptr %3, align 8, !tbaa !13
  %95 = getelementptr inbounds nuw %struct.H5S_t, ptr %94, i32 0, i32 0
  %96 = getelementptr inbounds nuw %struct.H5S_extent_t, ptr %95, i32 0, i32 3
  store i64 %93, ptr %96, align 8, !tbaa !27
  %97 = load ptr, ptr %3, align 8, !tbaa !13
  %98 = getelementptr inbounds nuw %struct.H5S_t, ptr %97, i32 0, i32 1
  %99 = getelementptr inbounds nuw %struct.H5S_select_t, ptr %98, i32 0, i32 0
  %100 = load ptr, ptr %99, align 8, !tbaa !36
  %101 = getelementptr inbounds nuw %struct.H5S_select_class_t, ptr %100, i32 0, i32 0
  %102 = load i32, ptr %101, align 8, !tbaa !37
  %103 = icmp eq i32 3, %102
  br i1 %103, label %104, label %128

104:                                              ; preds = %92
  %105 = load ptr, ptr %3, align 8, !tbaa !13
  %106 = call i32 @H5S_select_all(ptr noundef %105, i1 noundef zeroext false)
  %107 = icmp slt i32 %106, 0
  br i1 %107, label %108, label %127

108:                                              ; preds = %104
  br label %109

109:                                              ; preds = %108
  br label %110

110:                                              ; preds = %109
  br label %111

111:                                              ; preds = %110
  %112 = load i64, ptr @H5E_DATASPACE_g, align 8, !tbaa !11
  %113 = load i64, ptr @H5E_CANTDELETE_g, align 8, !tbaa !11
  %114 = call i32 (ptr, ptr, i32, i64, i64, ptr, ...) @H5E_printf_stack(ptr noundef @.str.3, ptr noundef @__func__.H5S_set_extent_real, i32 noundef 1856, i64 noundef %112, i64 noundef %113, ptr noundef @.str.22)
  br label %115

115:                                              ; preds = %111
  br label %116

116:                                              ; preds = %115
  store i8 1, ptr %8, align 1, !tbaa !7
  %117 = load i8, ptr %8, align 1, !tbaa !7, !range !9, !noundef !10
  %118 = trunc i8 %117 to i1
  %119 = zext i1 %118 to i8
  store i8 %119, ptr %8, align 1, !tbaa !7
  br label %120

120:                                              ; preds = %116
  br label %121

121:                                              ; preds = %120
  br label %122

122:                                              ; preds = %121
  store i32 -1, ptr %7, align 4, !tbaa !3
  br label %152

123:                                              ; No predecessors!
  br label %124

124:                                              ; preds = %123
  br label %125

125:                                              ; preds = %124
  br label %126

126:                                              ; preds = %125
  br label %127

127:                                              ; preds = %126, %104
  br label %128

128:                                              ; preds = %127, %92
  %129 = load ptr, ptr %3, align 8, !tbaa !13
  %130 = call i32 @H5O_msg_reset_share(i32 noundef 1, ptr noundef %129)
  %131 = icmp slt i32 %130, 0
  br i1 %131, label %132, label %151

132:                                              ; preds = %128
  br label %133

133:                                              ; preds = %132
  br label %134

134:                                              ; preds = %133
  br label %135

135:                                              ; preds = %134
  %136 = load i64, ptr @H5E_DATASPACE_g, align 8, !tbaa !11
  %137 = load i64, ptr @H5E_CANTRESET_g, align 8, !tbaa !11
  %138 = call i32 (ptr, ptr, i32, i64, i64, ptr, ...) @H5E_printf_stack(ptr noundef @.str.3, ptr noundef @__func__.H5S_set_extent_real, i32 noundef 1860, i64 noundef %136, i64 noundef %137, ptr noundef @.str.63)
  br label %139

139:                                              ; preds = %135
  br label %140

140:                                              ; preds = %139
  store i8 1, ptr %8, align 1, !tbaa !7
  %141 = load i8, ptr %8, align 1, !tbaa !7, !range !9, !noundef !10
  %142 = trunc i8 %141 to i1
  %143 = zext i1 %142 to i8
  store i8 %143, ptr %8, align 1, !tbaa !7
  br label %144

144:                                              ; preds = %140
  br label %145

145:                                              ; preds = %144
  br label %146

146:                                              ; preds = %145
  store i32 -1, ptr %7, align 4, !tbaa !3
  br label %152

147:                                              ; No predecessors!
  br label %148

148:                                              ; preds = %147
  br label %149

149:                                              ; preds = %148
  br label %150

150:                                              ; preds = %149
  br label %151

151:                                              ; preds = %150, %128
  br label %152

152:                                              ; preds = %151, %146, %122, %40
  br label %153

153:                                              ; preds = %152, %53
  %154 = load i32, ptr %7, align 4, !tbaa !3
  call void @llvm.lifetime.end.p0(i64 1, ptr %8) #7
  call void @llvm.lifetime.end.p0(i64 4, ptr %7) #7
  call void @llvm.lifetime.end.p0(i64 4, ptr %6) #7
  call void @llvm.lifetime.end.p0(i64 8, ptr %5) #7
  ret i32 %154
}