; Function Attrs: nounwind uwtable
define range(i32 -1, 1) i32 @H5S_set_extent_real(ptr noundef %0, ptr noundef readonly captures(none) %1) local_unnamed_addr #0 {
  %3 = load i8, ptr @H5S_init_g, align 1, !tbaa !3, !range !7, !noundef !8
  %4 = trunc nuw i8 %3 to i1
  %5 = load i8, ptr @H5_libterm_g, align 1, !range !7
  %6 = trunc nuw i8 %5 to i1
  %7 = select i1 %4, i1 true, i1 %6
  br i1 %7, label %15, label %8, !prof !9

8:                                                ; preds = %2
  store i8 1, ptr @H5S_init_g, align 1, !tbaa !3
  %9 = tail call i32 @H5S__init_package()
  %10 = icmp slt i32 %9, 0
  br i1 %10, label %11, label %._crit_edge23

._crit_edge23:                                    ; preds = %8
  %.pre = load i8, ptr @H5S_init_g, align 1, !tbaa !3, !range !7
  %.pre24 = load i8, ptr @H5_libterm_g, align 1, !range !7
  %.pre25 = trunc nuw i8 %.pre to i1
  %.pre26 = trunc nuw i8 %.pre24 to i1
  br label %15

11:                                               ; preds = %8
  store i8 0, ptr @H5S_init_g, align 1, !tbaa !3
  %12 = load i64, ptr @H5E_FUNC_g, align 8, !tbaa !10
  %13 = load i64, ptr @H5E_CANTINIT_g, align 8, !tbaa !10
  %14 = tail call i32 (ptr, ptr, i32, i64, i64, ptr, ...) @H5E_printf_stack(ptr noundef nonnull @.str.3, ptr noundef nonnull @__func__.H5S_set_extent_real, i32 noundef 1840, i64 noundef %12, i64 noundef %13, ptr noundef nonnull @.str.4) #10
  br label %46

15:                                               ; preds = %._crit_edge23, %2
  %.pre-phi27 = phi i1 [ %.pre26, %._crit_edge23 ], [ %6, %2 ]
  %.pre-phi = phi i1 [ %.pre25, %._crit_edge23 ], [ %4, %2 ]
  %16 = xor i1 %.pre-phi27, true
  %17 = select i1 %.pre-phi, i1 true, i1 %16
  br i1 %17, label %.preheader, label %46, !prof !9

.preheader:                                       ; preds = %15
  %18 = getelementptr inbounds nuw i8, ptr %0, i64 56
  %19 = load i32, ptr %18, align 8, !tbaa !23
  %.not = icmp eq i32 %19, 0
  br i1 %.not, label %._crit_edge, label %.lr.ph

.lr.ph:                                           ; preds = %.preheader
  %20 = getelementptr inbounds nuw i8, ptr %0, i64 64
  %21 = load ptr, ptr %20, align 8, !tbaa !43
  %wide.trip.count = zext i32 %19 to i64
  br label %22

22:                                               ; preds = %.lr.ph, %22
  %indvars.iv = phi i64 [ 0, %.lr.ph ], [ %indvars.iv.next, %22 ]
  %.01920 = phi i64 [ 1, %.lr.ph ], [ %26, %22 ]
  %23 = getelementptr inbounds nuw i64, ptr %1, i64 %indvars.iv
  %24 = load i64, ptr %23, align 8, !tbaa !10
  %25 = getelementptr inbounds nuw i64, ptr %21, i64 %indvars.iv
  store i64 %24, ptr %25, align 8, !tbaa !10
  %26 = mul i64 %24, %.01920
  %indvars.iv.next = add nuw nsw i64 %indvars.iv, 1
  %exitcond.not = icmp eq i64 %indvars.iv.next, %wide.trip.count
  br i1 %exitcond.not, label %._crit_edge, label %22, !llvm.loop !59

._crit_edge:                                      ; preds = %22, %.preheader
  %.019.lcssa = phi i64 [ 1, %.preheader ], [ %26, %22 ]
  %27 = getelementptr inbounds nuw i8, ptr %0, i64 48
  store i64 %.019.lcssa, ptr %27, align 8, !tbaa !24
  %28 = getelementptr inbounds nuw i8, ptr %0, i64 80
  %29 = load ptr, ptr %28, align 8, !tbaa !35
  %30 = load i32, ptr %29, align 8, !tbaa !36
  %31 = icmp eq i32 %30, 3
  br i1 %31, label %32, label %39

32:                                               ; preds = %._crit_edge
  %33 = tail call i32 @H5S_select_all(ptr noundef nonnull %0, i1 noundef zeroext false) #10
  %34 = icmp slt i32 %33, 0
  br i1 %34, label %35, label %39

35:                                               ; preds = %32
  %36 = load i64, ptr @H5E_DATASPACE_g, align 8, !tbaa !10
  %37 = load i64, ptr @H5E_CANTDELETE_g, align 8, !tbaa !10
  %38 = tail call i32 (ptr, ptr, i32, i64, i64, ptr, ...) @H5E_printf_stack(ptr noundef nonnull @.str.3, ptr noundef nonnull @__func__.H5S_set_extent_real, i32 noundef 1856, i64 noundef %36, i64 noundef %37, ptr noundef nonnull @.str.22) #10
  br label %46

39:                                               ; preds = %32, %._crit_edge
  %40 = tail call i32 @H5O_msg_reset_share(i32 noundef 1, ptr noundef nonnull %0) #10
  %41 = icmp slt i32 %40, 0
  br i1 %41, label %42, label %46

42:                                               ; preds = %39
  %43 = load i64, ptr @H5E_DATASPACE_g, align 8, !tbaa !10
  %44 = load i64, ptr @H5E_CANTRESET_g, align 8, !tbaa !10
  %45 = tail call i32 (ptr, ptr, i32, i64, i64, ptr, ...) @H5E_printf_stack(ptr noundef nonnull @.str.3, ptr noundef nonnull @__func__.H5S_set_extent_real, i32 noundef 1860, i64 noundef %43, i64 noundef %44, ptr noundef nonnull @.str.63) #10
  br label %46

46:                                               ; preds = %11, %35, %42, %39, %15
  %.0 = phi i32 [ -1, %11 ], [ -1, %35 ], [ -1, %42 ], [ 0, %39 ], [ 0, %15 ]
  ret i32 %.0
}